; Function Attrs: nofree norecurse nosync nounwind memory(argmem: readwrite) uwtable
define hidden void @je_hpdata_purge_end(ptr noundef captures(none) %0, ptr noundef captures(none) %1) local_unnamed_addr #6 {
  %3 = getelementptr inbounds nuw i8, ptr %1, i64 16
  br label %4

4:                                                ; preds = %4, %2
  %.08.i = phi i64 [ 0, %2 ], [ %8, %4 ]
  %5 = getelementptr inbounds nuw i64, ptr %3, i64 %.08.i
  %6 = load i64, ptr %5, align 8, !tbaa !32
  %7 = xor i64 %6, -1
  store i64 %7, ptr %5, align 8, !tbaa !32
  %8 = add nuw nsw i64 %.08.i, 1
  %exitcond.not.i = icmp eq i64 %8, 8
  br i1 %exitcond.not.i, label %fb_bit_not.exit, label %4, !llvm.loop !40

fb_bit_not.exit:                                  ; preds = %4
  %9 = getelementptr inbounds nuw i8, ptr %0, i64 184
  br label %10

10:                                               ; preds = %10, %fb_bit_not.exit
  %.010.i = phi i64 [ 0, %fb_bit_not.exit ], [ %16, %10 ]
  %11 = getelementptr inbounds nuw i64, ptr %9, i64 %.010.i
  %12 = load i64, ptr %11, align 8, !tbaa !32
  %13 = getelementptr inbounds nuw i64, ptr %3, i64 %.010.i
  %14 = load i64, ptr %13, align 8, !tbaa !32
  %15 = and i64 %14, %12
  store i64 %15, ptr %11, align 8, !tbaa !32
  %16 = add nuw nsw i64 %.010.i, 1
  %exitcond.not.i9 = icmp eq i64 %16, 8
  br i1 %exitcond.not.i9, label %fb_bit_and.exit, label %10, !llvm.loop !41

fb_bit_and.exit:                                  ; preds = %10
  %17 = getelementptr inbounds nuw i8, ptr %1, i64 8
  %18 = load i64, ptr %17, align 8, !tbaa !42
  %19 = getelementptr inbounds nuw i8, ptr %0, i64 176
  %20 = load i64, ptr %19, align 8, !tbaa !36
  %21 = sub i64 %20, %18
  store i64 %21, ptr %19, align 8, !tbaa !36
  ret void
}